; Function Attrs: null_pointer_is_valid sspstrong uwtable
define range(i32 -6, 1) i32 @wtap_block_set_bytes_option_value(ptr noundef readonly captures(address_is_null) %0, i32 noundef %1, ptr noundef %2, i64 noundef %3) local_unnamed_addr #0 {
  %5 = icmp eq ptr %0, null
  br i1 %5, label %wtap_block_add_bytes_option.exit, label %6

6:                                                ; preds = %4
  %7 = load ptr, ptr %0, align 8
  %8 = getelementptr inbounds nuw i8, ptr %7, i64 48
  %9 = load ptr, ptr %8, align 8
  %10 = zext i32 %1 to i64
  %11 = inttoptr i64 %10 to ptr
  %12 = tail call ptr @g_hash_table_lookup(ptr noundef %9, ptr noundef %11)
  %13 = icmp eq ptr %12, null
  br i1 %13, label %wtap_block_add_bytes_option.exit, label %14

14:                                               ; preds = %6
  %15 = getelementptr inbounds nuw i8, ptr %12, i64 16
  %16 = load i32, ptr %15, align 8
  %.not.i = icmp eq i32 %16, 4
  br i1 %.not.i, label %17, label %wtap_block_add_bytes_option.exit

17:                                               ; preds = %14
  %18 = getelementptr inbounds nuw i8, ptr %12, i64 20
  %19 = load i32, ptr %18, align 4
  %20 = and i32 %19, 1
  %.not15.i = icmp eq i32 %20, 0
  br i1 %.not15.i, label %21, label %wtap_block_add_bytes_option.exit

21:                                               ; preds = %17
  %22 = getelementptr inbounds nuw i8, ptr %0, i64 16
  %23 = load ptr, ptr %22, align 8
  %24 = getelementptr inbounds nuw i8, ptr %23, i64 8
  %25 = load i32, ptr %24, align 8
  %.not.i.i = icmp eq i32 %25, 0
  br i1 %.not.i.i, label %.thread, label %.lr.ph.i.i

.lr.ph.i.i:                                       ; preds = %21
  %26 = load ptr, ptr %23, align 8
  %wide.trip.count.i.i = zext i32 %25 to i64
  br label %28

27:                                               ; preds = %28
  %indvars.iv.next.i.i = add nuw nsw i64 %indvars.iv.i.i, 1
  %exitcond.not.i.i = icmp eq i64 %indvars.iv.next.i.i, %wide.trip.count.i.i
  br i1 %exitcond.not.i.i, label %.thread, label %28, !llvm.loop !11

28:                                               ; preds = %27, %.lr.ph.i.i
  %indvars.iv.i.i = phi i64 [ 0, %.lr.ph.i.i ], [ %indvars.iv.next.i.i, %27 ]
  %29 = getelementptr %struct.wtap_option_t, ptr %26, i64 %indvars.iv.i.i
  %30 = load i32, ptr %29, align 8
  %31 = icmp eq i32 %30, %1
  br i1 %31, label %63, label %27

.thread:                                          ; preds = %27, %21
  %32 = load ptr, ptr %0, align 8
  %33 = getelementptr inbounds nuw i8, ptr %32, i64 48
  %34 = load ptr, ptr %33, align 8
  %35 = tail call ptr @g_hash_table_lookup(ptr noundef %34, ptr noundef %11)
  %36 = icmp eq ptr %35, null
  br i1 %36, label %wtap_block_add_bytes_option.exit, label %37

37:                                               ; preds = %.thread
  %38 = getelementptr inbounds nuw i8, ptr %35, i64 16
  %39 = load i32, ptr %38, align 8
  %.not.i.i12 = icmp eq i32 %39, 4
  br i1 %.not.i.i12, label %40, label %wtap_block_add_bytes_option.exit

40:                                               ; preds = %37
  %41 = getelementptr inbounds nuw i8, ptr %35, i64 20
  %42 = load i32, ptr %41, align 4
  %43 = and i32 %42, 1
  %.not20.i.i = icmp eq i32 %43, 0
  %44 = load ptr, ptr %22, align 8
  %45 = getelementptr inbounds nuw i8, ptr %44, i64 8
  %46 = load i32, ptr %45, align 8
  br i1 %.not20.i.i, label %47, label %.loopexit.i

47:                                               ; preds = %40
  %.not.i.i.i = icmp eq i32 %46, 0
  br i1 %.not.i.i.i, label %.loopexit.i, label %.lr.ph.i.i.i

.lr.ph.i.i.i:                                     ; preds = %47
  %48 = load ptr, ptr %44, align 8
  %wide.trip.count.i.i.i = zext i32 %46 to i64
  br label %50

49:                                               ; preds = %50
  %indvars.iv.next.i.i.i = add nuw nsw i64 %indvars.iv.i.i.i, 1
  %exitcond.not.i.i.i = icmp eq i64 %indvars.iv.next.i.i.i, %wide.trip.count.i.i.i
  br i1 %exitcond.not.i.i.i, label %.loopexit.i, label %50, !llvm.loop !11

50:                                               ; preds = %49, %.lr.ph.i.i.i
  %indvars.iv.i.i.i = phi i64 [ 0, %.lr.ph.i.i.i ], [ %indvars.iv.next.i.i.i, %49 ]
  %51 = getelementptr %struct.wtap_option_t, ptr %48, i64 %indvars.iv.i.i.i
  %52 = load i32, ptr %51, align 8
  %53 = icmp eq i32 %52, %1
  br i1 %53, label %wtap_block_add_bytes_option.exit, label %49

.loopexit.i:                                      ; preds = %49, %47, %40
  %54 = phi i32 [ 0, %47 ], [ %46, %40 ], [ %46, %49 ]
  %55 = add i32 %54, 1
  %56 = tail call ptr @g_array_set_size(ptr noundef %44, i32 noundef %55)
  %57 = load ptr, ptr %22, align 8
  %58 = load ptr, ptr %57, align 8
  %59 = zext i32 %54 to i64
  %60 = getelementptr %struct.wtap_option_t, ptr %58, i64 %59
  store i32 %1, ptr %60, align 8
  %61 = tail call ptr @g_bytes_new(ptr noundef %2, i64 noundef %3)
  %62 = getelementptr inbounds nuw i8, ptr %60, i64 8
  store ptr %61, ptr %62, align 8
  br label %wtap_block_add_bytes_option.exit

63:                                               ; preds = %28
  %64 = getelementptr inbounds nuw i8, ptr %29, i64 8
  %65 = load ptr, ptr %64, align 8
  tail call void @g_bytes_unref(ptr noundef %65)
  %66 = tail call ptr @g_bytes_new(ptr noundef %2, i64 noundef %3)
  store ptr %66, ptr %64, align 8
  br label %wtap_block_add_bytes_option.exit

wtap_block_add_bytes_option.exit:                 ; preds = %50, %17, %14, %6, %4, %.loopexit.i, %37, %.thread, %63
  %.0 = phi i32 [ 0, %63 ], [ 0, %.loopexit.i ], [ -3, %37 ], [ -1, %.thread ], [ -4, %17 ], [ -3, %14 ], [ -1, %6 ], [ -6, %4 ], [ -5, %50 ]
  ret i32 %.0
}